; Function Attrs: nounwind uwtable
define ptr @l_Lean_Compiler_LCNF_Testing_assertAfterEachOccurrence(ptr noundef %0, ptr noundef %1) local_unnamed_addr #0 {
  %3 = getelementptr inbounds nuw i8, ptr %1, i64 8
  %4 = load ptr, ptr %3, align 8, !tbaa !7
  %5 = ptrtoint ptr %4 to i64
  %6 = and i64 %5, 1
  %.not = icmp eq i64 %6, 0
  br i1 %.not, label %7, label %lean_inc.exit

7:                                                ; preds = %2
  %.val.i = load i32, ptr %4, align 4, !tbaa !9
  %8 = icmp sgt i32 %.val.i, 0
  br i1 %8, label %9, label %11, !prof !12

9:                                                ; preds = %7
  %10 = add nuw i32 %.val.i, 1
  store i32 %10, ptr %4, align 4, !tbaa !9
  br label %lean_inc.exit

11:                                               ; preds = %7
  %.not.i = icmp eq i32 %.val.i, 0
  br i1 %.not.i, label %lean_inc.exit, label %12

12:                                               ; preds = %11
  tail call void @lean_inc_ref_cold(ptr noundef nonnull %4) #5
  br label %lean_inc.exit

lean_inc.exit:                                    ; preds = %12, %11, %9, %2
  tail call void @lean_inc_heartbeat() #5
  %13 = tail call noalias ptr @mi_malloc_small(i64 noundef 40) #5
  %14 = icmp eq ptr %13, null
  br i1 %14, label %15, label %lean_alloc_closure.exit

15:                                               ; preds = %lean_inc.exit
  tail call void @lean_internal_panic_out_of_memory() #6
  unreachable

lean_alloc_closure.exit:                          ; preds = %lean_inc.exit
  %16 = getelementptr inbounds nuw i8, ptr %13, i64 4
  store i32 1, ptr %13, align 4, !tbaa !9
  store i32 -184549336, ptr %16, align 4
  %17 = getelementptr inbounds nuw i8, ptr %13, i64 8
  store ptr @l___private_Lean_Compiler_LCNF_Testing_0__Lean_Compiler_LCNF_Testing_assertAfterTest, ptr %17, align 8, !tbaa !7
  %18 = getelementptr inbounds nuw i8, ptr %13, i64 16
  store i16 3, ptr %18, align 8, !tbaa !15
  %19 = getelementptr inbounds nuw i8, ptr %13, i64 18
  store i16 2, ptr %19, align 2, !tbaa !15
  %20 = getelementptr inbounds nuw i8, ptr %13, i64 24
  store ptr %0, ptr %20, align 8, !tbaa !7
  %21 = getelementptr inbounds nuw i8, ptr %13, i64 32
  store ptr %1, ptr %21, align 8, !tbaa !7
  %22 = tail call ptr @l_Lean_Compiler_LCNF_PassInstaller_installAfterEach(ptr noundef %4, ptr noundef nonnull %13) #5
  ret ptr %22
}